target datalayout = "e-m:e-p270:32:32-p271:32:32-p272:64:64-i64:64-i128:128-f80:128-n8:16:32:64-S128"
target triple = "x86_64-pc-linux-gnu"

%struct.expert_field = type { i32, i32 }

@hf_1722_crf_seqnum = internal global i32 0, align 4
@hf_1722_crf_type = internal global i32 0, align 4
@hf_1722_crf_stream_id = internal global i32 0, align 4
@hf_1722_crf_data_length = internal global i32 0, align 4
@hf_1722_crf_timestamp_interval = internal global i32 0, align 4
@hf_1722_crf_timestamp_data = internal global i32 0, align 4
@hf_1722_crf_timestamp = internal global i32 0, align 4
@ei_crf_datalen = internal global %struct.expert_field zeroinitializer, align 4
@ett_1722_crf = internal global i32 0, align 4
@ett_1722_crf_timestamp = internal global i32 0, align 4
@proto_1722_crf = internal global i32 0, align 4
@dissect_1722_crf.fields = internal constant [4 x ptr] [ptr @hf_1722_crf_mrfield, ptr @hf_1722_crf_fsfield, ptr @hf_1722_crf_tufield, ptr null], align 16
@dissect_1722_crf.pull_frequency = internal constant [3 x ptr] [ptr @hf_1722_crf_pull, ptr @hf_1722_crf_base_frequency, ptr null], align 16
@.str.400 = private unnamed_addr constant [14 x i8] c"Timestamp %d \00", align 1

; Function Attrs: null_pointer_is_valid sspstrong uwtable
define internal i32 @dissect_1722_crf(ptr noundef %0, ptr noundef %1, ptr noundef %2, ptr noundef %3) #0 {
  %5 = alloca ptr, align 8
  %6 = alloca ptr, align 8
  %7 = alloca ptr, align 8
  %8 = alloca ptr, align 8
  %9 = alloca ptr, align 8
  %10 = alloca ptr, align 8
  %11 = alloca ptr, align 8
  %12 = alloca i32, align 4
  %13 = alloca i32, align 4
  %14 = alloca i32, align 4
  store ptr %0, ptr %5, align 8
  store ptr %1, ptr %6, align 8
  store ptr %2, ptr %7, align 8
  store ptr %3, ptr %8, align 8
  call void @llvm.lifetime.start.p0(i64 8, ptr %9) #9
  call void @llvm.lifetime.start.p0(i64 8, ptr %10) #9
  call void @llvm.lifetime.start.p0(i64 8, ptr %11) #9
  call void @llvm.lifetime.start.p0(i64 4, ptr %12) #9
  store i32 1, ptr %12, align 4
  call void @llvm.lifetime.start.p0(i64 4, ptr %13) #9
  store i32 0, ptr %13, align 4
  call void @llvm.lifetime.start.p0(i64 4, ptr %14) #9
  store i32 0, ptr %14, align 4
  %15 = load ptr, ptr %7, align 8
  %16 = load i32, ptr @proto_1722_crf, align 4
  %17 = load ptr, ptr %5, align 8
  %18 = call ptr @proto_tree_add_item(ptr noundef %15, i32 noundef %16, ptr noundef %17, i32 noundef 0, i32 noundef -1, i32 noundef 0)
  store ptr %18, ptr %9, align 8
  %19 = load ptr, ptr %9, align 8
  %20 = load i32, ptr @ett_1722_crf, align 4
  %21 = call ptr @proto_item_add_subtree(ptr noundef %19, i32 noundef %20)
  store ptr %21, ptr %10, align 8
  %22 = load ptr, ptr %10, align 8
  %23 = load ptr, ptr %5, align 8
  %24 = load i32, ptr %12, align 4
  call void @proto_tree_add_bitmask_list(ptr noundef %22, ptr noundef %23, i32 noundef %24, i32 noundef 1, ptr noundef @dissect_1722_crf.fields, i32 noundef 0)
  %25 = load i32, ptr %12, align 4
  %26 = add i32 %25, 1
  store i32 %26, ptr %12, align 4
  %27 = load ptr, ptr %10, align 8
  %28 = load i32, ptr @hf_1722_crf_seqnum, align 4
  %29 = load ptr, ptr %5, align 8
  %30 = load i32, ptr %12, align 4
  %31 = call ptr @proto_tree_add_item(ptr noundef %27, i32 noundef %28, ptr noundef %29, i32 noundef %30, i32 noundef 1, i32 noundef 0)
  %32 = load i32, ptr %12, align 4
  %33 = add i32 %32, 1
  store i32 %33, ptr %12, align 4
  %34 = load ptr, ptr %10, align 8
  %35 = load i32, ptr @hf_1722_crf_type, align 4
  %36 = load ptr, ptr %5, align 8
  %37 = load i32, ptr %12, align 4
  %38 = call ptr @proto_tree_add_item(ptr noundef %34, i32 noundef %35, ptr noundef %36, i32 noundef %37, i32 noundef 1, i32 noundef 0)
  %39 = load i32, ptr %12, align 4
  %40 = add i32 %39, 1
  store i32 %40, ptr %12, align 4
  %41 = load ptr, ptr %10, align 8
  %42 = load i32, ptr @hf_1722_crf_stream_id, align 4
  %43 = load ptr, ptr %5, align 8
  %44 = load i32, ptr %12, align 4
  %45 = call ptr @proto_tree_add_item(ptr noundef %41, i32 noundef %42, ptr noundef %43, i32 noundef %44, i32 noundef 8, i32 noundef 0)
  %46 = load i32, ptr %12, align 4
  %47 = add i32 %46, 8
  store i32 %47, ptr %12, align 4
  %48 = load ptr, ptr %10, align 8
  %49 = load ptr, ptr %5, align 8
  %50 = load i32, ptr %12, align 4
  call void @proto_tree_add_bitmask_list(ptr noundef %48, ptr noundef %49, i32 noundef %50, i32 noundef 4, ptr noundef @dissect_1722_crf.pull_frequency, i32 noundef 0)
  %51 = load i32, ptr %12, align 4
  %52 = add i32 %51, 4
  store i32 %52, ptr %12, align 4
  %53 = load ptr, ptr %10, align 8
  %54 = load i32, ptr @hf_1722_crf_data_length, align 4
  %55 = load ptr, ptr %5, align 8
  %56 = load i32, ptr %12, align 4
  %57 = call ptr @proto_tree_add_item_ret_uint(ptr noundef %53, i32 noundef %54, ptr noundef %55, i32 noundef %56, i32 noundef 2, i32 noundef 0, ptr noundef %13)
  %58 = load i32, ptr %12, align 4
  %59 = add i32 %58, 2
  store i32 %59, ptr %12, align 4
  %60 = load ptr, ptr %10, align 8
  %61 = load i32, ptr @hf_1722_crf_timestamp_interval, align 4
  %62 = load ptr, ptr %5, align 8
  %63 = load i32, ptr %12, align 4
  %64 = call ptr @proto_tree_add_item(ptr noundef %60, i32 noundef %61, ptr noundef %62, i32 noundef %63, i32 noundef 2, i32 noundef 0)
  %65 = load i32, ptr %12, align 4
  %66 = add i32 %65, 2
  store i32 %66, ptr %12, align 4
  %67 = load ptr, ptr %10, align 8
  %68 = load i32, ptr @hf_1722_crf_timestamp_data, align 4
  %69 = load ptr, ptr %5, align 8
  %70 = load i32, ptr %12, align 4
  %71 = load i32, ptr %13, align 4
  %72 = call ptr @proto_tree_add_item(ptr noundef %67, i32 noundef %68, ptr noundef %69, i32 noundef %70, i32 noundef %71, i32 noundef 0)
  store ptr %72, ptr %9, align 8
  %73 = load ptr, ptr %9, align 8
  %74 = load i32, ptr @ett_1722_crf_timestamp, align 4
  %75 = call ptr @proto_item_add_subtree(ptr noundef %73, i32 noundef %74)
  store ptr %75, ptr %11, align 8
  %76 = load i32, ptr %13, align 4
  %77 = urem i32 %76, 8
  %78 = icmp ne i32 %77, 0
  br i1 %78, label %79, label %83

79:                                               ; preds = %4
  %80 = load ptr, ptr %6, align 8
  %81 = load ptr, ptr %9, align 8
  %82 = call ptr @expert_add_info(ptr noundef %80, ptr noundef %81, ptr noundef @ei_crf_datalen)
  br label %103

83:                                               ; preds = %4
  store i32 0, ptr %14, align 4
  br label %84

84:                                               ; preds = %99, %83
  %85 = load i32, ptr %14, align 4
  %86 = load i32, ptr %13, align 4
  %87 = udiv i32 %86, 8
  %88 = icmp ult i32 %85, %87
  br i1 %88, label %89, label %102

89:                                               ; preds = %84
  %90 = load ptr, ptr %11, align 8
  %91 = load i32, ptr @hf_1722_crf_timestamp, align 4
  %92 = load ptr, ptr %5, align 8
  %93 = load i32, ptr %12, align 4
  %94 = call ptr @proto_tree_add_item(ptr noundef %90, i32 noundef %91, ptr noundef %92, i32 noundef %93, i32 noundef 8, i32 noundef 0)
  store ptr %94, ptr %9, align 8
  %95 = load ptr, ptr %9, align 8
  %96 = load i32, ptr %14, align 4
  call void (ptr, ptr, ...) @proto_item_prepend_text(ptr noundef %95, ptr noundef @.str.400, i32 noundef %96)
  %97 = load i32, ptr %12, align 4
  %98 = add i32 %97, 8
  store i32 %98, ptr %12, align 4
  br label %99

99:                                               ; preds = %89
  %100 = load i32, ptr %14, align 4
  %101 = add i32 %100, 1
  store i32 %101, ptr %14, align 4
  br label %84, !llvm.loop !12

102:                                              ; preds = %84
  br label %103

103:                                              ; preds = %102, %79
  %104 = load ptr, ptr %5, align 8
  %105 = call i32 @tvb_captured_length(ptr noundef %104)
  call void @llvm.lifetime.end.p0(i64 4, ptr %14) #9
  call void @llvm.lifetime.end.p0(i64 4, ptr %13) #9
  call void @llvm.lifetime.end.p0(i64 4, ptr %12) #9
  call void @llvm.lifetime.end.p0(i64 8, ptr %11) #9
  call void @llvm.lifetime.end.p0(i64 8, ptr %10) #9
  call void @llvm.lifetime.end.p0(i64 8, ptr %9) #9
  ret i32 %105
}