; Function Attrs: null_pointer_is_valid sspstrong uwtable
define internal i32 @dissect_1722_crf(ptr noundef %0, ptr noundef %1, ptr noundef %2, ptr readnone captures(none) %3) #0 {
  %5 = alloca i32, align 4
  call void @llvm.lifetime.start.p0(i64 4, ptr nonnull %5) #7
  store i32 0, ptr %5, align 4
  %6 = load i32, ptr @proto_1722_crf, align 4
  %7 = tail call ptr @proto_tree_add_item(ptr noundef %2, i32 noundef %6, ptr noundef %0, i32 noundef 0, i32 noundef -1, i32 noundef 0)
  %8 = load i32, ptr @ett_1722_crf, align 4
  %9 = tail call ptr @proto_item_add_subtree(ptr noundef %7, i32 noundef %8)
  tail call void @proto_tree_add_bitmask_list(ptr noundef %9, ptr noundef %0, i32 noundef 1, i32 noundef 1, ptr noundef nonnull @dissect_1722_crf.fields, i32 noundef 0)
  %10 = load i32, ptr @hf_1722_crf_seqnum, align 4
  %11 = tail call ptr @proto_tree_add_item(ptr noundef %9, i32 noundef %10, ptr noundef %0, i32 noundef 2, i32 noundef 1, i32 noundef 0)
  %12 = load i32, ptr @hf_1722_crf_type, align 4
  %13 = tail call ptr @proto_tree_add_item(ptr noundef %9, i32 noundef %12, ptr noundef %0, i32 noundef 3, i32 noundef 1, i32 noundef 0)
  %14 = load i32, ptr @hf_1722_crf_stream_id, align 4
  %15 = tail call ptr @proto_tree_add_item(ptr noundef %9, i32 noundef %14, ptr noundef %0, i32 noundef 4, i32 noundef 8, i32 noundef 0)
  tail call void @proto_tree_add_bitmask_list(ptr noundef %9, ptr noundef %0, i32 noundef 12, i32 noundef 4, ptr noundef nonnull @dissect_1722_crf.pull_frequency, i32 noundef 0)
  %16 = load i32, ptr @hf_1722_crf_data_length, align 4
  %17 = call ptr @proto_tree_add_item_ret_uint(ptr noundef %9, i32 noundef %16, ptr noundef %0, i32 noundef 16, i32 noundef 2, i32 noundef 0, ptr noundef nonnull %5)
  %18 = load i32, ptr @hf_1722_crf_timestamp_interval, align 4
  %19 = call ptr @proto_tree_add_item(ptr noundef %9, i32 noundef %18, ptr noundef %0, i32 noundef 18, i32 noundef 2, i32 noundef 0)
  %20 = load i32, ptr @hf_1722_crf_timestamp_data, align 4
  %21 = load i32, ptr %5, align 4
  %22 = call ptr @proto_tree_add_item(ptr noundef %9, i32 noundef %20, ptr noundef %0, i32 noundef 20, i32 noundef %21, i32 noundef 0)
  %23 = load i32, ptr @ett_1722_crf_timestamp, align 4
  %24 = call ptr @proto_item_add_subtree(ptr noundef %22, i32 noundef %23)
  %25 = load i32, ptr %5, align 4
  %26 = and i32 %25, 7
  %.not = icmp eq i32 %26, 0
  br i1 %.not, label %.preheader, label %27

.preheader:                                       ; preds = %4
  %.not48 = icmp ult i32 %25, 8
  br i1 %.not48, label %.loopexit, label %.lr.ph

27:                                               ; preds = %4
  %28 = call ptr @expert_add_info(ptr noundef %1, ptr noundef %22, ptr noundef nonnull @ei_crf_datalen)
  br label %.loopexit

.lr.ph:                                           ; preds = %.preheader, %.lr.ph
  %.047 = phi i32 [ %32, %.lr.ph ], [ 0, %.preheader ]
  %.04546 = phi i32 [ %31, %.lr.ph ], [ 20, %.preheader ]
  %29 = load i32, ptr @hf_1722_crf_timestamp, align 4
  %30 = call ptr @proto_tree_add_item(ptr noundef %24, i32 noundef %29, ptr noundef %0, i32 noundef %.04546, i32 noundef 8, i32 noundef 0)
  call void (ptr, ptr, ...) @proto_item_prepend_text(ptr noundef %30, ptr noundef nonnull @.str.400, i32 noundef %.047)
  %31 = add i32 %.04546, 8
  %32 = add nuw nsw i32 %.047, 1
  %33 = load i32, ptr %5, align 4
  %34 = lshr i32 %33, 3
  %35 = icmp samesign ult i32 %32, %34
  br i1 %35, label %.lr.ph, label %.loopexit, !llvm.loop !12

.loopexit:                                        ; preds = %.lr.ph, %.preheader, %27
  %36 = call i32 @tvb_captured_length(ptr noundef %0)
  call void @llvm.lifetime.end.p0(i64 4, ptr nonnull %5) #7
  ret i32 %36
}